; Function Attrs: nounwind uwtable
define ptr @l___private_Lean_Meta_CongrTheorems_0__Lean_Meta_fixKindsForDependencies(ptr noundef readonly captures(none) %0, ptr noundef %1) local_unnamed_addr #1 {
lean_inc.exit:
  %2 = getelementptr inbounds nuw i8, ptr %0, i64 8
  %3 = load ptr, ptr %2, align 8, !tbaa !10
  %4 = getelementptr i8, ptr %3, i64 8
  %.val = load i64, ptr %4, align 8, !tbaa !16
  tail call void @lean_inc_heartbeat() #7
  %5 = tail call noalias ptr @mi_malloc_small(i64 noundef 32) #7
  %6 = icmp eq ptr %5, null
  br i1 %6, label %7, label %lean_alloc_ctor.exit

7:                                                ; preds = %lean_inc.exit
  tail call void @lean_internal_panic_out_of_memory() #8
  unreachable

lean_alloc_ctor.exit:                             ; preds = %lean_inc.exit
  %8 = shl i64 %.val, 1
  %9 = or disjoint i64 %8, 1
  %10 = inttoptr i64 %9 to ptr
  %11 = getelementptr inbounds nuw i8, ptr %5, i64 4
  store i32 1, ptr %5, align 4, !tbaa !4
  store i32 196640, ptr %11, align 4
  %12 = getelementptr inbounds nuw i8, ptr %5, i64 8
  store ptr inttoptr (i64 1 to ptr), ptr %12, align 8, !tbaa !10
  %13 = getelementptr inbounds nuw i8, ptr %5, i64 16
  store ptr %10, ptr %13, align 8, !tbaa !10
  %14 = getelementptr inbounds nuw i8, ptr %5, i64 24
  store ptr inttoptr (i64 3 to ptr), ptr %14, align 8, !tbaa !10
  %15 = tail call ptr @l_Std_Range_forIn_x27_loop___at___private_Lean_Meta_CongrTheorems_0__Lean_Meta_fixKindsForDependencies___spec__2(ptr nonnull poison, ptr noundef nonnull %3, ptr noundef nonnull %10, ptr nonnull poison, ptr noundef nonnull %5, ptr noundef %1, ptr noundef nonnull inttoptr (i64 1 to ptr), ptr nonnull poison, ptr nonnull poison)
  %16 = ptrtoint ptr %5 to i64
  %17 = and i64 %16, 1
  %.not = icmp eq i64 %17, 0
  br i1 %.not, label %18, label %lean_dec.exit

18:                                               ; preds = %lean_alloc_ctor.exit
  %19 = load i32, ptr %5, align 4, !tbaa !4
  %20 = icmp sgt i32 %19, 1
  br i1 %20, label %21, label %23, !prof !9

21:                                               ; preds = %18
  %22 = add nsw i32 %19, -1
  store i32 %22, ptr %5, align 4, !tbaa !4
  br label %lean_dec.exit

23:                                               ; preds = %18
  %.not.i = icmp eq i32 %19, 0
  br i1 %.not.i, label %lean_dec.exit, label %24

24:                                               ; preds = %23
  tail call void @lean_dec_ref_cold(ptr noundef nonnull %5) #7
  br label %lean_dec.exit

lean_dec.exit:                                    ; preds = %24, %23, %21, %lean_alloc_ctor.exit
  ret ptr %15
}